; Function Attrs: mustprogress uwtable
define hidden void @_ZNK11solver_pool16get_base_solversEv(ptr dead_on_unwind noalias writable sret(%class.ptr_vector) align 8 initializes((0, 8)) %0, ptr noundef nonnull readonly align 8 captures(none) dereferenceable(136) %1) local_unnamed_addr #5 align 2 personality ptr @__gxx_personality_v0 {
  store ptr null, ptr %0, align 8, !tbaa !40
  %3 = getelementptr inbounds nuw i8, ptr %1, i64 16
  %4 = load ptr, ptr %3, align 8, !tbaa !40
  %5 = icmp eq ptr %4, null
  br i1 %5, label %._crit_edge, label %_ZNK15ref_vector_coreI6solver21ref_unmanaged_wrapperIS0_EE3endEv.exit

_ZNK15ref_vector_coreI6solver21ref_unmanaged_wrapperIS0_EE3endEv.exit: ; preds = %2
  %6 = getelementptr inbounds i8, ptr %4, i64 -4
  %7 = load i32, ptr %6, align 4, !tbaa !41
  %8 = zext i32 %7 to i64
  %9 = getelementptr inbounds nuw ptr, ptr %4, i64 %8
  %.not23 = icmp eq i32 %7, 0
  br i1 %.not23, label %._crit_edge, label %.lr.ph

.lr.ph:                                           ; preds = %_ZNK15ref_vector_coreI6solver21ref_unmanaged_wrapperIS0_EE3endEv.exit, %_ZNK6vectorIP6solverLb0EjE8containsERKS1_.exit
  %10 = phi ptr [ %35, %_ZNK6vectorIP6solverLb0EjE8containsERKS1_.exit ], [ null, %_ZNK15ref_vector_coreI6solver21ref_unmanaged_wrapperIS0_EE3endEv.exit ]
  %.024 = phi ptr [ %36, %_ZNK6vectorIP6solverLb0EjE8containsERKS1_.exit ], [ %4, %_ZNK15ref_vector_coreI6solver21ref_unmanaged_wrapperIS0_EE3endEv.exit ]
  %11 = load ptr, ptr %.024, align 8, !tbaa !42, !nonnull !43, !noundef !43
  %12 = tail call ptr @__dynamic_cast(ptr nonnull %11, ptr nonnull @_ZTI6solver, ptr nonnull @_ZTI11pool_solver, i64 0) #25
  %13 = getelementptr inbounds nuw i8, ptr %12, i64 160
  %14 = load ptr, ptr %13, align 8, !tbaa !3
  %15 = icmp eq ptr %10, null
  br i1 %15, label %.thread, label %_ZNK6vectorIP6solverLb0EjE3endEv.exit.i

_ZNK6vectorIP6solverLb0EjE3endEv.exit.i:          ; preds = %.lr.ph
  %16 = getelementptr inbounds i8, ptr %10, i64 -4
  %17 = load i32, ptr %16, align 4, !tbaa !41
  %18 = zext i32 %17 to i64
  %19 = getelementptr inbounds nuw ptr, ptr %10, i64 %18
  %.not8.not.i = icmp eq i32 %17, 0
  br i1 %.not8.not.i, label %.thread22, label %.lr.ph.i

20:                                               ; preds = %.lr.ph.i
  %21 = getelementptr inbounds nuw i8, ptr %.079.i, i64 8
  %.not.not.i = icmp eq ptr %21, %19
  br i1 %.not.not.i, label %.thread22, label %.lr.ph.i, !llvm.loop !44

.lr.ph.i:                                         ; preds = %_ZNK6vectorIP6solverLb0EjE3endEv.exit.i, %20
  %.079.i = phi ptr [ %21, %20 ], [ %10, %_ZNK6vectorIP6solverLb0EjE3endEv.exit.i ]
  %22 = load ptr, ptr %.079.i, align 8, !tbaa !42
  %23 = icmp eq ptr %22, %14
  br i1 %23, label %_ZNK6vectorIP6solverLb0EjE8containsERKS1_.exit, label %20

.thread22:                                        ; preds = %20, %_ZNK6vectorIP6solverLb0EjE3endEv.exit.i
  %24 = getelementptr inbounds i8, ptr %10, i64 -8
  %25 = load i32, ptr %24, align 4, !tbaa !41
  %26 = icmp eq i32 %17, %25
  br i1 %26, label %.thread, label %27

.thread:                                          ; preds = %.lr.ph, %.thread22
  invoke void @_ZN6vectorIP6solverLb0EjE13expand_vectorEv(ptr noundef nonnull align 8 dereferenceable(8) %0)
          to label %.noexc unwind label %33

.noexc:                                           ; preds = %.thread
  %.pre.i = load ptr, ptr %0, align 8, !tbaa !40
  %.phi.trans.insert.i = getelementptr inbounds i8, ptr %.pre.i, i64 -4
  %.pre2.i = load i32, ptr %.phi.trans.insert.i, align 4, !tbaa !41
  %.pre = zext i32 %.pre2.i to i64
  br label %27

27:                                               ; preds = %.noexc, %.thread22
  %.pre-phi = phi i64 [ %.pre, %.noexc ], [ %18, %.thread22 ]
  %28 = phi ptr [ %.pre.i, %.noexc ], [ %10, %.thread22 ]
  %29 = phi i32 [ %.pre2.i, %.noexc ], [ %17, %.thread22 ]
  %30 = getelementptr inbounds i8, ptr %28, i64 -4
  %31 = getelementptr inbounds nuw ptr, ptr %28, i64 %.pre-phi
  store ptr %14, ptr %31, align 8, !tbaa !42
  %32 = add i32 %29, 1
  store i32 %32, ptr %30, align 4, !tbaa !41
  br label %_ZNK6vectorIP6solverLb0EjE8containsERKS1_.exit

33:                                               ; preds = %.thread
  %34 = landingpad { ptr, i32 }
          cleanup
  tail call void @_ZN6vectorIP6solverLb0EjED2Ev(ptr noundef nonnull align 8 dereferenceable(8) %0) #25
  resume { ptr, i32 } %34

_ZNK6vectorIP6solverLb0EjE8containsERKS1_.exit:   ; preds = %.lr.ph.i, %27
  %35 = phi ptr [ %28, %27 ], [ %10, %.lr.ph.i ]
  %36 = getelementptr inbounds nuw i8, ptr %.024, i64 8
  %.not = icmp eq ptr %36, %9
  br i1 %.not, label %._crit_edge, label %.lr.ph

._crit_edge:                                      ; preds = %_ZNK6vectorIP6solverLb0EjE8containsERKS1_.exit, %2, %_ZNK15ref_vector_coreI6solver21ref_unmanaged_wrapperIS0_EE3endEv.exit
  ret void
}